target datalayout = "e-m:e-p270:32:32-p271:32:32-p272:64:64-i64:64-i128:128-f80:128-n8:16:32:64-S128"
target triple = "x86_64-pc-linux-gnu"

%struct.evp_cipher_st = type { i32, i32, i32, i32, i64, i32, ptr, ptr, ptr, i32, ptr, ptr, ptr, ptr, i32, ptr, ptr, ptr, %struct.CRYPTO_REF_COUNT, ptr, ptr, ptr, ptr, ptr, ptr, ptr, ptr, ptr, ptr, ptr, ptr, ptr, ptr, ptr, ptr, ptr, ptr, ptr, ptr }
%struct.CRYPTO_REF_COUNT = type { i32 }

; Function Attrs: nounwind uwtable
define i32 @EVP_CIPHER_meth_set_iv_length(ptr noundef %0, i32 noundef %1) #0 {
  %3 = alloca i32, align 4
  %4 = alloca ptr, align 8
  %5 = alloca i32, align 4
  store ptr %0, ptr %4, align 8, !tbaa !7
  store i32 %1, ptr %5, align 4, !tbaa !3
  %6 = load ptr, ptr %4, align 8, !tbaa !7
  %7 = getelementptr inbounds nuw %struct.evp_cipher_st, ptr %6, i32 0, i32 3
  %8 = load i32, ptr %7, align 4, !tbaa !22
  %9 = icmp ne i32 %8, 0
  br i1 %9, label %10, label %11

10:                                               ; preds = %2
  store i32 0, ptr %3, align 4
  br label %15

11:                                               ; preds = %2
  %12 = load i32, ptr %5, align 4, !tbaa !3
  %13 = load ptr, ptr %4, align 8, !tbaa !7
  %14 = getelementptr inbounds nuw %struct.evp_cipher_st, ptr %13, i32 0, i32 3
  store i32 %12, ptr %14, align 4, !tbaa !22
  store i32 1, ptr %3, align 4
  br label %15

15:                                               ; preds = %11, %10
  %16 = load i32, ptr %3, align 4
  ret i32 %16
}